target datalayout = "e-m:e-p270:32:32-p271:32:32-p272:64:64-i64:64-i128:128-f80:128-n8:16:32:64-S128"
target triple = "x86_64-unknown-linux-gnu"

%"class.logging::CheckOpResult" = type { ptr }
%"class.logging::LogMessage" = type <{ i32, [4 x i8], %"class.std::__cxx11::basic_ostringstream", i64, ptr, i32, [4 x i8] }>
%"class.std::__cxx11::basic_ostringstream" = type { %"class.std::basic_ostream.base", %"class.std::__cxx11::basic_stringbuf", %"class.std::basic_ios" }
%"class.std::basic_ostream.base" = type { ptr }
%"class.std::__cxx11::basic_stringbuf" = type { %"class.std::basic_streambuf", i32, %"class.std::__cxx11::basic_string" }
%"class.std::basic_streambuf" = type { ptr, ptr, ptr, ptr, ptr, ptr, ptr, %"class.std::locale" }
%"class.std::locale" = type { ptr }
%"class.std::__cxx11::basic_string" = type { %"struct.std::__cxx11::basic_string<char>::_Alloc_hider", i64, %union.anon }
%"struct.std::__cxx11::basic_string<char>::_Alloc_hider" = type { ptr }
%union.anon = type { i64, [8 x i8] }
%"class.std::basic_ios" = type { %"class.std::ios_base", ptr, i8, i8, ptr, ptr, ptr, ptr }
%"class.std::ios_base" = type { ptr, i64, i64, i32, i32, i32, ptr, %"struct.std::ios_base::_Words", [8 x %"struct.std::ios_base::_Words"], i32, ptr, %"class.std::locale" }
%"struct.std::ios_base::_Words" = type { ptr, i64 }
%"class.net::AeadBaseDecrypter" = type { %"class.net::QuicDecrypter", ptr, i64, i64, i64, i8, [32 x i8], [4 x i8], %"class.net::ScopedEVPAEADCtx" }
%"class.net::QuicDecrypter" = type { ptr }
%"class.net::ScopedEVPAEADCtx" = type { %struct.evp_aead_ctx_st }
%struct.evp_aead_ctx_st = type { ptr, ptr }

@.str = private unnamed_addr constant [141 x i8] c"generated/home/dtcxzyw/WorkSpace/Projects/compilers/llvm-opt-benchmark/bench/libquic/libquic/src/net/quic/core/crypto/aead_base_decrypter.cc\00", align 1

; Function Attrs: mustprogress nounwind uwtable
define linkonce_odr dso_local void @_ZN3net13QuicDecrypterD2Ev(ptr noundef nonnull align 8 dereferenceable(8) %this) unnamed_addr #1 comdat align 2 {
entry:
  %this.addr = alloca ptr, align 8
  store ptr %this, ptr %this.addr, align 8
  ret void
}

; Function Attrs: mustprogress nounwind uwtable
define linkonce_odr dso_local noundef nonnull align 8 dereferenceable(8) ptr @_ZN7logging10LogMessage6streamEv(ptr noundef nonnull align 8 dereferenceable(404) %this) #1 comdat align 2 {
entry:
  %this.addr = alloca ptr, align 8
  store ptr %this, ptr %this.addr, align 8
  %this1 = load ptr, ptr %this.addr, align 8
  %stream_ = getelementptr inbounds %"class.logging::LogMessage", ptr %this1, i32 0, i32 2
  ret ptr %stream_
}

; Function Attrs: mustprogress nounwind uwtable
define linkonce_odr dso_local noundef ptr @_ZN7logging13CheckOpResult7messageB5cxx11Ev(ptr noundef nonnull align 8 dereferenceable(8) %this) #1 comdat align 2 {
entry:
  %this.addr = alloca ptr, align 8
  store ptr %this, ptr %this.addr, align 8
  %this1 = load ptr, ptr %this.addr, align 8
  %message_ = getelementptr inbounds %"class.logging::CheckOpResult", ptr %this1, i32 0, i32 0
  %0 = load ptr, ptr %message_, align 8
  ret ptr %0
}

; Function Attrs: mustprogress nounwind uwtable
define linkonce_odr dso_local noundef zeroext i1 @_ZNK7logging13CheckOpResultcvbEv(ptr noundef nonnull align 8 dereferenceable(8) %this) #1 comdat align 2 {
entry:
  %this.addr = alloca ptr, align 8
  store ptr %this, ptr %this.addr, align 8
  %this1 = load ptr, ptr %this.addr, align 8
  %message_ = getelementptr inbounds %"class.logging::CheckOpResult", ptr %this1, i32 0, i32 0
  %0 = load ptr, ptr %message_, align 8
  %tobool = icmp ne ptr %0, null
  %lnot = xor i1 %tobool, true
  ret i1 %lnot
}

; Function Attrs: mustprogress nounwind uwtable
define linkonce_odr dso_local void @_ZN7logging13CheckOpResultC2EPNSt7__cxx1112basic_stringIcSt11char_traitsIcESaIcEEE(ptr noundef nonnull align 8 dereferenceable(8) %this, ptr noundef %message) unnamed_addr #1 comdat align 2 {
entry:
  %this.addr = alloca ptr, align 8
  %message.addr = alloca ptr, align 8
  store ptr %this, ptr %this.addr, align 8
  store ptr %message, ptr %message.addr, align 8
  %this1 = load ptr, ptr %this.addr, align 8
  %message_ = getelementptr inbounds %"class.logging::CheckOpResult", ptr %this1, i32 0, i32 0
  %0 = load ptr, ptr %message.addr, align 8
  store ptr %0, ptr %message_, align 8
  ret void
}

; Function Attrs: mustprogress nounwind uwtable
define linkonce_odr dso_local void @_ZN3net13QuicDecrypterC2Ev(ptr noundef nonnull align 8 dereferenceable(8) %this) unnamed_addr #1 comdat align 2 {
entry:
  %this.addr = alloca ptr, align 8
  store ptr %this, ptr %this.addr, align 8
  %this1 = load ptr, ptr %this.addr, align 8
  store ptr getelementptr inbounds ({ [13 x ptr] }, ptr @_ZTVN3net13QuicDecrypterE, i32 0, i32 0, i32 2), ptr %this1, align 8
  ret void
}

; Function Attrs: mustprogress uwtable
define dso_local void @_ZN3net17AeadBaseDecrypterC2EPK11evp_aead_stmmm(ptr noundef nonnull align 8 dereferenceable(96) %this, ptr noundef %aead_alg, i64 noundef %key_size, i64 noundef %auth_tag_size, i64 noundef %nonce_prefix_size) unnamed_addr #0 align 2 personality ptr @__gxx_personality_v0 {
entry:
  %this.addr = alloca ptr, align 8
  %aead_alg.addr = alloca ptr, align 8
  %key_size.addr = alloca i64, align 8
  %auth_tag_size.addr = alloca i64, align 8
  %nonce_prefix_size.addr = alloca i64, align 8
  %exn.slot = alloca ptr, align 8
  %ehselector.slot = alloca i32, align 4
  %true_if_passed = alloca %"class.logging::CheckOpResult", align 8
  %ref.tmp = alloca %"class.logging::LogMessage", align 8
  %true_if_passed11 = alloca %"class.logging::CheckOpResult", align 8
  %ref.tmp17 = alloca %"class.logging::LogMessage", align 8
  %true_if_passed25 = alloca %"class.logging::CheckOpResult", align 8
  %ref.tmp31 = alloca %"class.logging::LogMessage", align 8
  %true_if_passed39 = alloca %"class.logging::CheckOpResult", align 8
  %ref.tmp45 = alloca %"class.logging::LogMessage", align 8
  %true_if_passed53 = alloca %"class.logging::CheckOpResult", align 8
  %ref.tmp59 = alloca %"class.logging::LogMessage", align 8
  store ptr %this, ptr %this.addr, align 8
  store ptr %aead_alg, ptr %aead_alg.addr, align 8
  store i64 %key_size, ptr %key_size.addr, align 8
  store i64 %auth_tag_size, ptr %auth_tag_size.addr, align 8
  store i64 %nonce_prefix_size, ptr %nonce_prefix_size.addr, align 8
  %this1 = load ptr, ptr %this.addr, align 8
  call void @_ZN3net13QuicDecrypterC2Ev(ptr noundef nonnull align 8 dereferenceable(8) %this1) #6
  store ptr getelementptr inbounds ({ [13 x ptr] }, ptr @_ZTVN3net17AeadBaseDecrypterE, i32 0, i32 0, i32 2), ptr %this1, align 8
  %aead_alg_ = getelementptr inbounds %"class.net::AeadBaseDecrypter", ptr %this1, i32 0, i32 1
  %0 = load ptr, ptr %aead_alg.addr, align 8
  store ptr %0, ptr %aead_alg_, align 8
  %key_size_ = getelementptr inbounds %"class.net::AeadBaseDecrypter", ptr %this1, i32 0, i32 2
  %1 = load i64, ptr %key_size.addr, align 8
  store i64 %1, ptr %key_size_, align 8
  %auth_tag_size_ = getelementptr inbounds %"class.net::AeadBaseDecrypter", ptr %this1, i32 0, i32 3
  %2 = load i64, ptr %auth_tag_size.addr, align 8
  store i64 %2, ptr %auth_tag_size_, align 8
  %nonce_prefix_size_ = getelementptr inbounds %"class.net::AeadBaseDecrypter", ptr %this1, i32 0, i32 4
  %3 = load i64, ptr %nonce_prefix_size.addr, align 8
  store i64 %3, ptr %nonce_prefix_size_, align 8
  %have_preliminary_key_ = getelementptr inbounds %"class.net::AeadBaseDecrypter", ptr %this1, i32 0, i32 5
  store i8 0, ptr %have_preliminary_key_, align 8
  %ctx_ = getelementptr inbounds %"class.net::AeadBaseDecrypter", ptr %this1, i32 0, i32 8
  invoke void @_ZN3net16ScopedEVPAEADCtxC1Ev(ptr noundef nonnull align 8 dereferenceable(16) %ctx_)
          to label %invoke.cont unwind label %lpad

invoke.cont:                                      ; preds = %entry
  invoke void @_ZN7logging13CheckOpResultC2EPNSt7__cxx1112basic_stringIcSt11char_traitsIcESaIcEEE(ptr noundef nonnull align 8 dereferenceable(8) %true_if_passed, ptr noundef null)
          to label %invoke.cont3 unwind label %lpad2

invoke.cont3:                                     ; preds = %invoke.cont
  %call = invoke noundef zeroext i1 @_ZNK7logging13CheckOpResultcvbEv(ptr noundef nonnull align 8 dereferenceable(8) %true_if_passed)
          to label %invoke.cont4 unwind label %lpad2

invoke.cont4:                                     ; preds = %invoke.cont3
  br i1 %call, label %if.then, label %if.else

if.then:                                          ; preds = %invoke.cont4
  br label %if.end

lpad:                                             ; preds = %entry
  %4 = landingpad { ptr, i32 }
          cleanup
  %5 = extractvalue { ptr, i32 } %4, 0
  store ptr %5, ptr %exn.slot, align 8
  %6 = extractvalue { ptr, i32 } %4, 1
  store i32 %6, ptr %ehselector.slot, align 4
  br label %ehcleanup67

lpad2:                                            ; preds = %invoke.cont60, %if.else58, %invoke.cont54, %if.end52, %invoke.cont46, %if.else44, %invoke.cont40, %if.end38, %invoke.cont32, %if.else30, %invoke.cont26, %if.end24, %invoke.cont18, %if.else16, %invoke.cont12, %if.end, %invoke.cont5, %if.else, %invoke.cont3, %invoke.cont
  %7 = landingpad { ptr, i32 }
          cleanup
  %8 = extractvalue { ptr, i32 } %7, 0
  store ptr %8, ptr %exn.slot, align 8
  %9 = extractvalue { ptr, i32 } %7, 1
  store i32 %9, ptr %ehselector.slot, align 4
  br label %ehcleanup

if.else:                                          ; preds = %invoke.cont4
  %call6 = invoke noundef ptr @_ZN7logging13CheckOpResult7messageB5cxx11Ev(ptr noundef nonnull align 8 dereferenceable(8) %true_if_passed)
          to label %invoke.cont5 unwind label %lpad2

invoke.cont5:                                     ; preds = %if.else
  invoke void @_ZN7logging10LogMessageC1EPKciiPNSt7__cxx1112basic_stringIcSt11char_traitsIcESaIcEEE(ptr noundef nonnull align 8 dereferenceable(404) %ref.tmp, ptr noundef @.str, i32 noundef 53, i32 noundef 0, ptr noundef %call6)
          to label %invoke.cont7 unwind label %lpad2

invoke.cont7:                                     ; preds = %invoke.cont5
  %call10 = invoke noundef nonnull align 8 dereferenceable(8) ptr @_ZN7logging10LogMessage6streamEv(ptr noundef nonnull align 8 dereferenceable(404) %ref.tmp)
          to label %invoke.cont9 unwind label %lpad8

invoke.cont9:                                     ; preds = %invoke.cont7
  call void @_ZN7logging10LogMessageD1Ev(ptr noundef nonnull align 8 dereferenceable(404) %ref.tmp) #6
  br label %if.end

lpad8:                                            ; preds = %invoke.cont7
  %10 = landingpad { ptr, i32 }
          cleanup
  %11 = extractvalue { ptr, i32 } %10, 0
  store ptr %11, ptr %exn.slot, align 8
  %12 = extractvalue { ptr, i32 } %10, 1
  store i32 %12, ptr %ehselector.slot, align 4
  call void @_ZN7logging10LogMessageD1Ev(ptr noundef nonnull align 8 dereferenceable(404) %ref.tmp) #6
  br label %ehcleanup

if.end:                                           ; preds = %invoke.cont9, %if.then
  invoke void @_ZN7logging13CheckOpResultC2EPNSt7__cxx1112basic_stringIcSt11char_traitsIcESaIcEEE(ptr noundef nonnull align 8 dereferenceable(8) %true_if_passed11, ptr noundef null)
          to label %invoke.cont12 unwind label %lpad2

invoke.cont12:                                    ; preds = %if.end
  %call14 = invoke noundef zeroext i1 @_ZNK7logging13CheckOpResultcvbEv(ptr noundef nonnull align 8 dereferenceable(8) %true_if_passed11)
          to label %invoke.cont13 unwind label %lpad2

invoke.cont13:                                    ; preds = %invoke.cont12
  br i1 %call14, label %if.then15, label %if.else16

if.then15:                                        ; preds = %invoke.cont13
  br label %if.end24

if.else16:                                        ; preds = %invoke.cont13
  %call19 = invoke noundef ptr @_ZN7logging13CheckOpResult7messageB5cxx11Ev(ptr noundef nonnull align 8 dereferenceable(8) %true_if_passed11)
          to label %invoke.cont18 unwind label %lpad2

invoke.cont18:                                    ; preds = %if.else16
  invoke void @_ZN7logging10LogMessageC1EPKciiPNSt7__cxx1112basic_stringIcSt11char_traitsIcESaIcEEE(ptr noundef nonnull align 8 dereferenceable(404) %ref.tmp17, ptr noundef @.str, i32 noundef 54, i32 noundef 0, ptr noundef %call19)
          to label %invoke.cont20 unwind label %lpad2

invoke.cont20:                                    ; preds = %invoke.cont18
  %call23 = invoke noundef nonnull align 8 dereferenceable(8) ptr @_ZN7logging10LogMessage6streamEv(ptr noundef nonnull align 8 dereferenceable(404) %ref.tmp17)
          to label %invoke.cont22 unwind label %lpad21

invoke.cont22:                                    ; preds = %invoke.cont20
  call void @_ZN7logging10LogMessageD1Ev(ptr noundef nonnull align 8 dereferenceable(404) %ref.tmp17) #6
  br label %if.end24

lpad21:                                           ; preds = %invoke.cont20
  %13 = landingpad { ptr, i32 }
          cleanup
  %14 = extractvalue { ptr, i32 } %13, 0
  store ptr %14, ptr %exn.slot, align 8
  %15 = extractvalue { ptr, i32 } %13, 1
  store i32 %15, ptr %ehselector.slot, align 4
  call void @_ZN7logging10LogMessageD1Ev(ptr noundef nonnull align 8 dereferenceable(404) %ref.tmp17) #6
  br label %ehcleanup

if.end24:                                         ; preds = %invoke.cont22, %if.then15
  invoke void @_ZN7logging13CheckOpResultC2EPNSt7__cxx1112basic_stringIcSt11char_traitsIcESaIcEEE(ptr noundef nonnull align 8 dereferenceable(8) %true_if_passed25, ptr noundef null)
          to label %invoke.cont26 unwind label %lpad2

invoke.cont26:                                    ; preds = %if.end24
  %call28 = invoke noundef zeroext i1 @_ZNK7logging13CheckOpResultcvbEv(ptr noundef nonnull align 8 dereferenceable(8) %true_if_passed25)
          to label %invoke.cont27 unwind label %lpad2

invoke.cont27:                                    ; preds = %invoke.cont26
  br i1 %call28, label %if.then29, label %if.else30

if.then29:                                        ; preds = %invoke.cont27
  br label %if.end38

if.else30:                                        ; preds = %invoke.cont27
  %call33 = invoke noundef ptr @_ZN7logging13CheckOpResult7messageB5cxx11Ev(ptr noundef nonnull align 8 dereferenceable(8) %true_if_passed25)
          to label %invoke.cont32 unwind label %lpad2

invoke.cont32:                                    ; preds = %if.else30
  invoke void @_ZN7logging10LogMessageC1EPKciiPNSt7__cxx1112basic_stringIcSt11char_traitsIcESaIcEEE(ptr noundef nonnull align 8 dereferenceable(404) %ref.tmp31, ptr noundef @.str, i32 noundef 55, i32 noundef 0, ptr noundef %call33)
          to label %invoke.cont34 unwind label %lpad2

invoke.cont34:                                    ; preds = %invoke.cont32
  %call37 = invoke noundef nonnull align 8 dereferenceable(8) ptr @_ZN7logging10LogMessage6streamEv(ptr noundef nonnull align 8 dereferenceable(404) %ref.tmp31)
          to label %invoke.cont36 unwind label %lpad35

invoke.cont36:                                    ; preds = %invoke.cont34
  call void @_ZN7logging10LogMessageD1Ev(ptr noundef nonnull align 8 dereferenceable(404) %ref.tmp31) #6
  br label %if.end38

lpad35:                                           ; preds = %invoke.cont34
  %16 = landingpad { ptr, i32 }
          cleanup
  %17 = extractvalue { ptr, i32 } %16, 0
  store ptr %17, ptr %exn.slot, align 8
  %18 = extractvalue { ptr, i32 } %16, 1
  store i32 %18, ptr %ehselector.slot, align 4
  call void @_ZN7logging10LogMessageD1Ev(ptr noundef nonnull align 8 dereferenceable(404) %ref.tmp31) #6
  br label %ehcleanup

if.end38:                                         ; preds = %invoke.cont36, %if.then29
  invoke void @_ZN7logging13CheckOpResultC2EPNSt7__cxx1112basic_stringIcSt11char_traitsIcESaIcEEE(ptr noundef nonnull align 8 dereferenceable(8) %true_if_passed39, ptr noundef null)
          to label %invoke.cont40 unwind label %lpad2

invoke.cont40:                                    ; preds = %if.end38
  %call42 = invoke noundef zeroext i1 @_ZNK7logging13CheckOpResultcvbEv(ptr noundef nonnull align 8 dereferenceable(8) %true_if_passed39)
          to label %invoke.cont41 unwind label %lpad2

invoke.cont41:                                    ; preds = %invoke.cont40
  br i1 %call42, label %if.then43, label %if.else44

if.then43:                                        ; preds = %invoke.cont41
  br label %if.end52

if.else44:                                        ; preds = %invoke.cont41
  %call47 = invoke noundef ptr @_ZN7logging13CheckOpResult7messageB5cxx11Ev(ptr noundef nonnull align 8 dereferenceable(8) %true_if_passed39)
          to label %invoke.cont46 unwind label %lpad2

invoke.cont46:                                    ; preds = %if.else44
  invoke void @_ZN7logging10LogMessageC1EPKciiPNSt7__cxx1112basic_stringIcSt11char_traitsIcESaIcEEE(ptr noundef nonnull align 8 dereferenceable(404) %ref.tmp45, ptr noundef @.str, i32 noundef 56, i32 noundef 0, ptr noundef %call47)
          to label %invoke.cont48 unwind label %lpad2

invoke.cont48:                                    ; preds = %invoke.cont46
  %call51 = invoke noundef nonnull align 8 dereferenceable(8) ptr @_ZN7logging10LogMessage6streamEv(ptr noundef nonnull align 8 dereferenceable(404) %ref.tmp45)
          to label %invoke.cont50 unwind label %lpad49

invoke.cont50:                                    ; preds = %invoke.cont48
  call void @_ZN7logging10LogMessageD1Ev(ptr noundef nonnull align 8 dereferenceable(404) %ref.tmp45) #6
  br label %if.end52

lpad49:                                           ; preds = %invoke.cont48
  %19 = landingpad { ptr, i32 }
          cleanup
  %20 = extractvalue { ptr, i32 } %19, 0
  store ptr %20, ptr %exn.slot, align 8
  %21 = extractvalue { ptr, i32 } %19, 1
  store i32 %21, ptr %ehselector.slot, align 4
  call void @_ZN7logging10LogMessageD1Ev(ptr noundef nonnull align 8 dereferenceable(404) %ref.tmp45) #6
  br label %ehcleanup

if.end52:                                         ; preds = %invoke.cont50, %if.then43
  invoke void @_ZN7logging13CheckOpResultC2EPNSt7__cxx1112basic_stringIcSt11char_traitsIcESaIcEEE(ptr noundef nonnull align 8 dereferenceable(8) %true_if_passed53, ptr noundef null)
          to label %invoke.cont54 unwind label %lpad2

invoke.cont54:                                    ; preds = %if.end52
  %call56 = invoke noundef zeroext i1 @_ZNK7logging13CheckOpResultcvbEv(ptr noundef nonnull align 8 dereferenceable(8) %true_if_passed53)
          to label %invoke.cont55 unwind label %lpad2

invoke.cont55:                                    ; preds = %invoke.cont54
  br i1 %call56, label %if.then57, label %if.else58

if.then57:                                        ; preds = %invoke.cont55
  br label %if.end66

if.else58:                                        ; preds = %invoke.cont55
  %call61 = invoke noundef ptr @_ZN7logging13CheckOpResult7messageB5cxx11Ev(ptr noundef nonnull align 8 dereferenceable(8) %true_if_passed53)
          to label %invoke.cont60 unwind label %lpad2

invoke.cont60:                                    ; preds = %if.else58
  invoke void @_ZN7logging10LogMessageC1EPKciiPNSt7__cxx1112basic_stringIcSt11char_traitsIcESaIcEEE(ptr noundef nonnull align 8 dereferenceable(404) %ref.tmp59, ptr noundef @.str, i32 noundef 57, i32 noundef 0, ptr noundef %call61)
          to label %invoke.cont62 unwind label %lpad2

invoke.cont62:                                    ; preds = %invoke.cont60
  %call65 = invoke noundef nonnull align 8 dereferenceable(8) ptr @_ZN7logging10LogMessage6streamEv(ptr noundef nonnull align 8 dereferenceable(404) %ref.tmp59)
          to label %invoke.cont64 unwind label %lpad63

invoke.cont64:                                    ; preds = %invoke.cont62
  call void @_ZN7logging10LogMessageD1Ev(ptr noundef nonnull align 8 dereferenceable(404) %ref.tmp59) #6
  br label %if.end66

lpad63:                                           ; preds = %invoke.cont62
  %22 = landingpad { ptr, i32 }
          cleanup
  %23 = extractvalue { ptr, i32 } %22, 0
  store ptr %23, ptr %exn.slot, align 8
  %24 = extractvalue { ptr, i32 } %22, 1
  store i32 %24, ptr %ehselector.slot, align 4
  call void @_ZN7logging10LogMessageD1Ev(ptr noundef nonnull align 8 dereferenceable(404) %ref.tmp59) #6
  br label %ehcleanup

if.end66:                                         ; preds = %invoke.cont64, %if.then57
  ret void

ehcleanup:                                        ; preds = %lpad63, %lpad49, %lpad35, %lpad21, %lpad8, %lpad2
  call void @_ZN3net16ScopedEVPAEADCtxD1Ev(ptr noundef nonnull align 8 dereferenceable(16) %ctx_) #6
  br label %ehcleanup67

ehcleanup67:                                      ; preds = %ehcleanup, %lpad
  call void @_ZN3net13QuicDecrypterD2Ev(ptr noundef nonnull align 8 dereferenceable(8) %this1) #6
  br label %eh.resume

eh.resume:                                        ; preds = %ehcleanup67
  %exn = load ptr, ptr %exn.slot, align 8
  %sel = load i32, ptr %ehselector.slot, align 4
  %lpad.val = insertvalue { ptr, i32 } poison, ptr %exn, 0
  %lpad.val68 = insertvalue { ptr, i32 } %lpad.val, i32 %sel, 1
  resume { ptr, i32 } %lpad.val68
}