; Function Attrs: mustprogress uwtable
define dso_local void @_ZN3net17AeadBaseDecrypterC2EPK11evp_aead_stmmm(ptr noundef nonnull align 8 dereferenceable(96) %this, ptr noundef %aead_alg, i64 noundef %key_size, i64 noundef %auth_tag_size, i64 noundef %nonce_prefix_size) unnamed_addr #0 align 2 personality ptr @__gxx_personality_v0 {
entry:
  store ptr getelementptr inbounds ({ [13 x ptr] }, ptr @_ZTVN3net17AeadBaseDecrypterE, i64 0, i32 0, i64 2), ptr %this, align 8
  %aead_alg_ = getelementptr inbounds i8, ptr %this, i64 8
  store ptr %aead_alg, ptr %aead_alg_, align 8
  %key_size_ = getelementptr inbounds i8, ptr %this, i64 16
  store i64 %key_size, ptr %key_size_, align 8
  %auth_tag_size_ = getelementptr inbounds i8, ptr %this, i64 24
  store i64 %auth_tag_size, ptr %auth_tag_size_, align 8
  %nonce_prefix_size_ = getelementptr inbounds i8, ptr %this, i64 32
  store i64 %nonce_prefix_size, ptr %nonce_prefix_size_, align 8
  %have_preliminary_key_ = getelementptr inbounds i8, ptr %this, i64 40
  store i8 0, ptr %have_preliminary_key_, align 8
  %ctx_ = getelementptr inbounds i8, ptr %this, i64 80
  tail call void @_ZN3net16ScopedEVPAEADCtxC1Ev(ptr noundef nonnull align 8 dereferenceable(16) %ctx_)
  ret void
}